target datalayout = "e-m:e-p270:32:32-p271:32:32-p272:64:64-i64:64-i128:128-f80:128-n8:16:32:64-S128"
target triple = "x86_64-pc-linux-gnu"

%struct._lsprof_state = type { ptr, ptr, ptr }

@_lsprof_profiler_type_spec = internal global { ptr, i32, i32, i32, [4 x i8], ptr } { ptr @.str.3, i32 80, i32 0, i32 17664, [4 x i8] zeroinitializer, ptr @_lsprof_profiler_type_spec_slots }, align 8
@profiler_entry_desc = internal global { ptr, ptr, ptr, i32, [4 x i8] } { ptr @.str.46, ptr null, ptr @profiler_entry_fields, i32 6, [4 x i8] zeroinitializer }, align 8
@profiler_subentry_desc = internal global { ptr, ptr, ptr, i32, [4 x i8] } { ptr @.str.60, ptr null, ptr @profiler_subentry_fields, i32 5, [4 x i8] zeroinitializer }, align 8

; Function Attrs: nounwind uwtable
define internal i32 @_lsprof_exec(ptr noundef %0) #0 {
  %2 = alloca i32, align 4
  %3 = alloca ptr, align 8
  %4 = alloca ptr, align 8
  %5 = alloca i32, align 4
  store ptr %0, ptr %3, align 8, !tbaa !3
  call void @llvm.lifetime.start.p0(i64 8, ptr %4) #6
  %6 = load ptr, ptr %3, align 8, !tbaa !3
  %7 = call ptr @PyModule_GetState(ptr noundef %6)
  store ptr %7, ptr %4, align 8, !tbaa !24
  %8 = load ptr, ptr %3, align 8, !tbaa !3
  %9 = call ptr @PyType_FromModuleAndSpec(ptr noundef %8, ptr noundef @_lsprof_profiler_type_spec, ptr noundef null)
  %10 = load ptr, ptr %4, align 8, !tbaa !24
  %11 = getelementptr inbounds nuw %struct._lsprof_state, ptr %10, i32 0, i32 0
  store ptr %9, ptr %11, align 8, !tbaa !25
  %12 = load ptr, ptr %4, align 8, !tbaa !24
  %13 = getelementptr inbounds nuw %struct._lsprof_state, ptr %12, i32 0, i32 0
  %14 = load ptr, ptr %13, align 8, !tbaa !25
  %15 = icmp eq ptr %14, null
  br i1 %15, label %16, label %17

16:                                               ; preds = %1
  store i32 -1, ptr %2, align 4
  store i32 1, ptr %5, align 4
  br label %60

17:                                               ; preds = %1
  %18 = load ptr, ptr %3, align 8, !tbaa !3
  %19 = load ptr, ptr %4, align 8, !tbaa !24
  %20 = getelementptr inbounds nuw %struct._lsprof_state, ptr %19, i32 0, i32 0
  %21 = load ptr, ptr %20, align 8, !tbaa !25
  %22 = call i32 @PyModule_AddType(ptr noundef %18, ptr noundef %21)
  %23 = icmp slt i32 %22, 0
  br i1 %23, label %24, label %25

24:                                               ; preds = %17
  store i32 -1, ptr %2, align 4
  store i32 1, ptr %5, align 4
  br label %60

25:                                               ; preds = %17
  %26 = call ptr @PyStructSequence_NewType(ptr noundef @profiler_entry_desc)
  %27 = load ptr, ptr %4, align 8, !tbaa !24
  %28 = getelementptr inbounds nuw %struct._lsprof_state, ptr %27, i32 0, i32 1
  store ptr %26, ptr %28, align 8, !tbaa !27
  %29 = load ptr, ptr %4, align 8, !tbaa !24
  %30 = getelementptr inbounds nuw %struct._lsprof_state, ptr %29, i32 0, i32 1
  %31 = load ptr, ptr %30, align 8, !tbaa !27
  %32 = icmp eq ptr %31, null
  br i1 %32, label %33, label %34

33:                                               ; preds = %25
  store i32 -1, ptr %2, align 4
  store i32 1, ptr %5, align 4
  br label %60

34:                                               ; preds = %25
  %35 = load ptr, ptr %3, align 8, !tbaa !3
  %36 = load ptr, ptr %4, align 8, !tbaa !24
  %37 = getelementptr inbounds nuw %struct._lsprof_state, ptr %36, i32 0, i32 1
  %38 = load ptr, ptr %37, align 8, !tbaa !27
  %39 = call i32 @PyModule_AddType(ptr noundef %35, ptr noundef %38)
  %40 = icmp slt i32 %39, 0
  br i1 %40, label %41, label %42

41:                                               ; preds = %34
  store i32 -1, ptr %2, align 4
  store i32 1, ptr %5, align 4
  br label %60

42:                                               ; preds = %34
  %43 = call ptr @PyStructSequence_NewType(ptr noundef @profiler_subentry_desc)
  %44 = load ptr, ptr %4, align 8, !tbaa !24
  %45 = getelementptr inbounds nuw %struct._lsprof_state, ptr %44, i32 0, i32 2
  store ptr %43, ptr %45, align 8, !tbaa !28
  %46 = load ptr, ptr %4, align 8, !tbaa !24
  %47 = getelementptr inbounds nuw %struct._lsprof_state, ptr %46, i32 0, i32 2
  %48 = load ptr, ptr %47, align 8, !tbaa !28
  %49 = icmp eq ptr %48, null
  br i1 %49, label %50, label %51

50:                                               ; preds = %42
  store i32 -1, ptr %2, align 4
  store i32 1, ptr %5, align 4
  br label %60

51:                                               ; preds = %42
  %52 = load ptr, ptr %3, align 8, !tbaa !3
  %53 = load ptr, ptr %4, align 8, !tbaa !24
  %54 = getelementptr inbounds nuw %struct._lsprof_state, ptr %53, i32 0, i32 2
  %55 = load ptr, ptr %54, align 8, !tbaa !28
  %56 = call i32 @PyModule_AddType(ptr noundef %52, ptr noundef %55)
  %57 = icmp slt i32 %56, 0
  br i1 %57, label %58, label %59

58:                                               ; preds = %51
  store i32 -1, ptr %2, align 4
  store i32 1, ptr %5, align 4
  br label %60

59:                                               ; preds = %51
  store i32 0, ptr %2, align 4
  store i32 1, ptr %5, align 4
  br label %60

60:                                               ; preds = %59, %58, %50, %41, %33, %24, %16
  call void @llvm.lifetime.end.p0(i64 8, ptr %4) #6
  %61 = load i32, ptr %2, align 4
  ret i32 %61
}