; Function Attrs: nounwind uwtable
define internal range(i32 -1, 1) i32 @_lsprof_exec(ptr noundef %0) #0 {
  %2 = tail call ptr @PyModule_GetState(ptr noundef %0) #5
  %3 = tail call ptr @PyType_FromModuleAndSpec(ptr noundef %0, ptr noundef nonnull @_lsprof_profiler_type_spec, ptr noundef null) #5
  store ptr %3, ptr %2, align 8, !tbaa !21
  %4 = icmp eq ptr %3, null
  br i1 %4, label %21, label %5

5:                                                ; preds = %1
  %6 = tail call i32 @PyModule_AddType(ptr noundef %0, ptr noundef nonnull %3) #5
  %7 = icmp slt i32 %6, 0
  br i1 %7, label %21, label %8

8:                                                ; preds = %5
  %9 = tail call ptr @PyStructSequence_NewType(ptr noundef nonnull @profiler_entry_desc) #5
  %10 = getelementptr inbounds nuw i8, ptr %2, i64 8
  store ptr %9, ptr %10, align 8, !tbaa !23
  %11 = icmp eq ptr %9, null
  br i1 %11, label %21, label %12

12:                                               ; preds = %8
  %13 = tail call i32 @PyModule_AddType(ptr noundef %0, ptr noundef nonnull %9) #5
  %14 = icmp slt i32 %13, 0
  br i1 %14, label %21, label %15

15:                                               ; preds = %12
  %16 = tail call ptr @PyStructSequence_NewType(ptr noundef nonnull @profiler_subentry_desc) #5
  %17 = getelementptr inbounds nuw i8, ptr %2, i64 16
  store ptr %16, ptr %17, align 8, !tbaa !24
  %18 = icmp eq ptr %16, null
  br i1 %18, label %21, label %19

19:                                               ; preds = %15
  %20 = tail call i32 @PyModule_AddType(ptr noundef %0, ptr noundef nonnull %16) #5
  %.lobit = ashr i32 %20, 31
  br label %21

21:                                               ; preds = %19, %15, %12, %8, %5, %1
  %.0 = phi i32 [ -1, %1 ], [ -1, %5 ], [ -1, %8 ], [ -1, %12 ], [ -1, %15 ], [ %.lobit, %19 ]
  ret i32 %.0
}